target datalayout = "e-m:e-p270:32:32-p271:32:32-p272:64:64-i64:64-i128:128-f80:128-n8:16:32:64-S128"
target triple = "x86_64-pc-linux-gnu"

%struct.permInfo = type { i32, ptr, i32, i32, ptr, i32, i32 }

; Function Attrs: inlinehint nounwind uwtable
define internal void @minWord3(ptr noundef %0, ptr noundef %1, ptr noundef %2, i32 noundef %3) #3 {
  %5 = alloca ptr, align 8
  %6 = alloca ptr, align 8
  %7 = alloca ptr, align 8
  %8 = alloca i32, align 4
  store ptr %0, ptr %5, align 8, !tbaa !34
  store ptr %1, ptr %6, align 8, !tbaa !34
  store ptr %2, ptr %7, align 8, !tbaa !34
  store i32 %3, ptr %8, align 4, !tbaa !11
  %9 = load ptr, ptr %5, align 8, !tbaa !34
  %10 = load ptr, ptr %6, align 8, !tbaa !34
  %11 = load i32, ptr %8, align 4, !tbaa !11
  %12 = call i32 @memCompare(ptr noundef %9, ptr noundef %10, i32 noundef %11)
  %13 = icmp sle i32 %12, 0
  br i1 %13, label %14, label %26

14:                                               ; preds = %4
  %15 = load ptr, ptr %5, align 8, !tbaa !34
  %16 = load ptr, ptr %7, align 8, !tbaa !34
  %17 = load i32, ptr %8, align 4, !tbaa !11
  %18 = call i32 @memCompare(ptr noundef %15, ptr noundef %16, i32 noundef %17)
  %19 = icmp slt i32 %18, 0
  br i1 %19, label %20, label %24

20:                                               ; preds = %14
  %21 = load ptr, ptr %7, align 8, !tbaa !34
  %22 = load ptr, ptr %5, align 8, !tbaa !34
  %23 = load i32, ptr %8, align 4, !tbaa !11
  call void @Kit_TruthCopy_64bit(ptr noundef %21, ptr noundef %22, i32 noundef %23)
  br label %25

24:                                               ; preds = %14
  br label %36

25:                                               ; preds = %20
  br label %26

26:                                               ; preds = %25, %4
  %27 = load ptr, ptr %6, align 8, !tbaa !34
  %28 = load ptr, ptr %7, align 8, !tbaa !34
  %29 = load i32, ptr %8, align 4, !tbaa !11
  %30 = call i32 @memCompare(ptr noundef %27, ptr noundef %28, i32 noundef %29)
  %31 = icmp sle i32 %30, 0
  br i1 %31, label %32, label %36

32:                                               ; preds = %26
  %33 = load ptr, ptr %7, align 8, !tbaa !34
  %34 = load ptr, ptr %6, align 8, !tbaa !34
  %35 = load i32, ptr %8, align 4, !tbaa !11
  call void @Kit_TruthCopy_64bit(ptr noundef %33, ptr noundef %34, i32 noundef %35)
  br label %36

36:                                               ; preds = %24, %32, %26
  ret void
}

; Function Attrs: inlinehint nounwind uwtable
define internal void @minWord(ptr noundef %0, ptr noundef %1, ptr noundef %2, i32 noundef %3) #3 {
  %5 = alloca ptr, align 8
  %6 = alloca ptr, align 8
  %7 = alloca ptr, align 8
  %8 = alloca i32, align 4
  store ptr %0, ptr %5, align 8, !tbaa !34
  store ptr %1, ptr %6, align 8, !tbaa !34
  store ptr %2, ptr %7, align 8, !tbaa !34
  store i32 %3, ptr %8, align 4, !tbaa !11
  %9 = load ptr, ptr %5, align 8, !tbaa !34
  %10 = load ptr, ptr %6, align 8, !tbaa !34
  %11 = load i32, ptr %8, align 4, !tbaa !11
  %12 = call i32 @memCompare(ptr noundef %9, ptr noundef %10, i32 noundef %11)
  %13 = icmp eq i32 %12, -1
  br i1 %13, label %14, label %18

14:                                               ; preds = %4
  %15 = load ptr, ptr %7, align 8, !tbaa !34
  %16 = load ptr, ptr %5, align 8, !tbaa !34
  %17 = load i32, ptr %8, align 4, !tbaa !11
  call void @Kit_TruthCopy_64bit(ptr noundef %15, ptr noundef %16, i32 noundef %17)
  br label %22

18:                                               ; preds = %4
  %19 = load ptr, ptr %7, align 8, !tbaa !34
  %20 = load ptr, ptr %6, align 8, !tbaa !34
  %21 = load i32, ptr %8, align 4, !tbaa !11
  call void @Kit_TruthCopy_64bit(ptr noundef %19, ptr noundef %20, i32 noundef %21)
  br label %22

22:                                               ; preds = %18, %14
  ret void
}

; Function Attrs: nounwind uwtable
define void @simpleMinimal(ptr noundef %0, ptr noundef %1, ptr noundef %2, ptr noundef %3, i32 noundef %4) #0 {
  %6 = alloca ptr, align 8
  %7 = alloca ptr, align 8
  %8 = alloca ptr, align 8
  %9 = alloca ptr, align 8
  %10 = alloca i32, align 4
  %11 = alloca i32, align 4
  %12 = alloca i32, align 4
  store ptr %0, ptr %6, align 8, !tbaa !34
  store ptr %1, ptr %7, align 8, !tbaa !34
  store ptr %2, ptr %8, align 8, !tbaa !34
  store ptr %3, ptr %9, align 8, !tbaa !3
  store i32 %4, ptr %10, align 4, !tbaa !11
  call void @llvm.lifetime.start.p0(i64 4, ptr %11) #7
  call void @llvm.lifetime.start.p0(i64 4, ptr %12) #7
  store i32 0, ptr %12, align 4, !tbaa !11
  %13 = load ptr, ptr %7, align 8, !tbaa !34
  %14 = load ptr, ptr %6, align 8, !tbaa !34
  %15 = load i32, ptr %10, align 4, !tbaa !11
  call void @Kit_TruthCopy_64bit(ptr noundef %13, ptr noundef %14, i32 noundef %15)
  %16 = load ptr, ptr %6, align 8, !tbaa !34
  %17 = load i32, ptr %10, align 4, !tbaa !11
  call void @Kit_TruthNot_64bit(ptr noundef %16, i32 noundef %17)
  %18 = load ptr, ptr %6, align 8, !tbaa !34
  %19 = load ptr, ptr %7, align 8, !tbaa !34
  %20 = load ptr, ptr %8, align 8, !tbaa !34
  %21 = load i32, ptr %10, align 4, !tbaa !11
  call void @minWord(ptr noundef %18, ptr noundef %19, ptr noundef %20, i32 noundef %21)
  %22 = load ptr, ptr %9, align 8, !tbaa !3
  %23 = getelementptr inbounds nuw %struct.permInfo, ptr %22, i32 0, i32 3
  %24 = load i32, ptr %23, align 4, !tbaa !22
  %25 = sub nsw i32 %24, 1
  store i32 %25, ptr %11, align 4, !tbaa !11
  br label %26

26:                                               ; preds = %52, %5
  %27 = load i32, ptr %11, align 4, !tbaa !11
  %28 = icmp sge i32 %27, 0
  br i1 %28, label %29, label %55

29:                                               ; preds = %26
  %30 = load ptr, ptr %6, align 8, !tbaa !34
  %31 = load i32, ptr %10, align 4, !tbaa !11
  %32 = load ptr, ptr %9, align 8, !tbaa !3
  %33 = getelementptr inbounds nuw %struct.permInfo, ptr %32, i32 0, i32 1
  %34 = load ptr, ptr %33, align 8, !tbaa !25
  %35 = load i32, ptr %11, align 4, !tbaa !11
  %36 = sext i32 %35 to i64
  %37 = getelementptr inbounds i32, ptr %34, i64 %36
  %38 = load i32, ptr %37, align 4, !tbaa !11
  call void @Kit_TruthSwapAdjacentVars_64bit(ptr noundef %30, i32 noundef %31, i32 noundef %38)
  %39 = load ptr, ptr %7, align 8, !tbaa !34
  %40 = load i32, ptr %10, align 4, !tbaa !11
  %41 = load ptr, ptr %9, align 8, !tbaa !3
  %42 = getelementptr inbounds nuw %struct.permInfo, ptr %41, i32 0, i32 1
  %43 = load ptr, ptr %42, align 8, !tbaa !25
  %44 = load i32, ptr %11, align 4, !tbaa !11
  %45 = sext i32 %44 to i64
  %46 = getelementptr inbounds i32, ptr %43, i64 %45
  %47 = load i32, ptr %46, align 4, !tbaa !11
  call void @Kit_TruthSwapAdjacentVars_64bit(ptr noundef %39, i32 noundef %40, i32 noundef %47)
  %48 = load ptr, ptr %6, align 8, !tbaa !34
  %49 = load ptr, ptr %7, align 8, !tbaa !34
  %50 = load ptr, ptr %8, align 8, !tbaa !34
  %51 = load i32, ptr %10, align 4, !tbaa !11
  call void @minWord3(ptr noundef %48, ptr noundef %49, ptr noundef %50, i32 noundef %51)
  br label %52

52:                                               ; preds = %29
  %53 = load i32, ptr %11, align 4, !tbaa !11
  %54 = add nsw i32 %53, -1
  store i32 %54, ptr %11, align 4, !tbaa !11
  br label %26, !llvm.loop !36

55:                                               ; preds = %26
  %56 = load ptr, ptr %9, align 8, !tbaa !3
  %57 = getelementptr inbounds nuw %struct.permInfo, ptr %56, i32 0, i32 6
  %58 = load i32, ptr %57, align 4, !tbaa !29
  %59 = sub nsw i32 %58, 1
  store i32 %59, ptr %12, align 4, !tbaa !11
  br label %60

60:                                               ; preds = %124, %55
  %61 = load i32, ptr %12, align 4, !tbaa !11
  %62 = icmp sge i32 %61, 0
  br i1 %62, label %63, label %127

63:                                               ; preds = %60
  %64 = load ptr, ptr %6, align 8, !tbaa !34
  %65 = load i32, ptr %10, align 4, !tbaa !11
  call void @Kit_TruthSwapAdjacentVars_64bit(ptr noundef %64, i32 noundef %65, i32 noundef 0)
  %66 = load ptr, ptr %7, align 8, !tbaa !34
  %67 = load i32, ptr %10, align 4, !tbaa !11
  call void @Kit_TruthSwapAdjacentVars_64bit(ptr noundef %66, i32 noundef %67, i32 noundef 0)
  %68 = load ptr, ptr %6, align 8, !tbaa !34
  %69 = load i32, ptr %10, align 4, !tbaa !11
  %70 = load ptr, ptr %9, align 8, !tbaa !3
  %71 = getelementptr inbounds nuw %struct.permInfo, ptr %70, i32 0, i32 4
  %72 = load ptr, ptr %71, align 8, !tbaa !30
  %73 = load i32, ptr %12, align 4, !tbaa !11
  %74 = sext i32 %73 to i64
  %75 = getelementptr inbounds i32, ptr %72, i64 %74
  %76 = load i32, ptr %75, align 4, !tbaa !11
  call void @Kit_TruthChangePhase_64bit(ptr noundef %68, i32 noundef %69, i32 noundef %76)
  %77 = load ptr, ptr %7, align 8, !tbaa !34
  %78 = load i32, ptr %10, align 4, !tbaa !11
  %79 = load ptr, ptr %9, align 8, !tbaa !3
  %80 = getelementptr inbounds nuw %struct.permInfo, ptr %79, i32 0, i32 4
  %81 = load ptr, ptr %80, align 8, !tbaa !30
  %82 = load i32, ptr %12, align 4, !tbaa !11
  %83 = sext i32 %82 to i64
  %84 = getelementptr inbounds i32, ptr %81, i64 %83
  %85 = load i32, ptr %84, align 4, !tbaa !11
  call void @Kit_TruthChangePhase_64bit(ptr noundef %77, i32 noundef %78, i32 noundef %85)
  %86 = load ptr, ptr %6, align 8, !tbaa !34
  %87 = load ptr, ptr %7, align 8, !tbaa !34
  %88 = load ptr, ptr %8, align 8, !tbaa !34
  %89 = load i32, ptr %10, align 4, !tbaa !11
  call void @minWord3(ptr noundef %86, ptr noundef %87, ptr noundef %88, i32 noundef %89)
  %90 = load ptr, ptr %9, align 8, !tbaa !3
  %91 = getelementptr inbounds nuw %struct.permInfo, ptr %90, i32 0, i32 3
  %92 = load i32, ptr %91, align 4, !tbaa !22
  %93 = sub nsw i32 %92, 1
  store i32 %93, ptr %11, align 4, !tbaa !11
  br label %94

94:                                               ; preds = %120, %63
  %95 = load i32, ptr %11, align 4, !tbaa !11
  %96 = icmp sge i32 %95, 0
  br i1 %96, label %97, label %123

97:                                               ; preds = %94
  %98 = load ptr, ptr %6, align 8, !tbaa !34
  %99 = load i32, ptr %10, align 4, !tbaa !11
  %100 = load ptr, ptr %9, align 8, !tbaa !3
  %101 = getelementptr inbounds nuw %struct.permInfo, ptr %100, i32 0, i32 1
  %102 = load ptr, ptr %101, align 8, !tbaa !25
  %103 = load i32, ptr %11, align 4, !tbaa !11
  %104 = sext i32 %103 to i64
  %105 = getelementptr inbounds i32, ptr %102, i64 %104
  %106 = load i32, ptr %105, align 4, !tbaa !11
  call void @Kit_TruthSwapAdjacentVars_64bit(ptr noundef %98, i32 noundef %99, i32 noundef %106)
  %107 = load ptr, ptr %7, align 8, !tbaa !34
  %108 = load i32, ptr %10, align 4, !tbaa !11
  %109 = load ptr, ptr %9, align 8, !tbaa !3
  %110 = getelementptr inbounds nuw %struct.permInfo, ptr %109, i32 0, i32 1
  %111 = load ptr, ptr %110, align 8, !tbaa !25
  %112 = load i32, ptr %11, align 4, !tbaa !11
  %113 = sext i32 %112 to i64
  %114 = getelementptr inbounds i32, ptr %111, i64 %113
  %115 = load i32, ptr %114, align 4, !tbaa !11
  call void @Kit_TruthSwapAdjacentVars_64bit(ptr noundef %107, i32 noundef %108, i32 noundef %115)
  %116 = load ptr, ptr %6, align 8, !tbaa !34
  %117 = load ptr, ptr %7, align 8, !tbaa !34
  %118 = load ptr, ptr %8, align 8, !tbaa !34
  %119 = load i32, ptr %10, align 4, !tbaa !11
  call void @minWord3(ptr noundef %116, ptr noundef %117, ptr noundef %118, i32 noundef %119)
  br label %120

120:                                              ; preds = %97
  %121 = load i32, ptr %11, align 4, !tbaa !11
  %122 = add nsw i32 %121, -1
  store i32 %122, ptr %11, align 4, !tbaa !11
  br label %94, !llvm.loop !37

123:                                              ; preds = %94
  br label %124

124:                                              ; preds = %123
  %125 = load i32, ptr %12, align 4, !tbaa !11
  %126 = add nsw i32 %125, -1
  store i32 %126, ptr %12, align 4, !tbaa !11
  br label %60, !llvm.loop !38

127:                                              ; preds = %60
  %128 = load ptr, ptr %6, align 8, !tbaa !34
  %129 = load ptr, ptr %8, align 8, !tbaa !34
  %130 = load i32, ptr %10, align 4, !tbaa !11
  call void @Kit_TruthCopy_64bit(ptr noundef %128, ptr noundef %129, i32 noundef %130)
  call void @llvm.lifetime.end.p0(i64 4, ptr %12) #7
  call void @llvm.lifetime.end.p0(i64 4, ptr %11) #7
  ret void
}