; Function Attrs: nounwind uwtable
define void @simpleMinimal(ptr noundef %0, ptr noundef %1, ptr noundef %2, ptr noundef readonly captures(none) %3, i32 noundef %4) local_unnamed_addr #1 {
  tail call void @Kit_TruthCopy_64bit(ptr noundef %1, ptr noundef %0, i32 noundef %4) #11
  tail call void @Kit_TruthNot_64bit(ptr noundef %0, i32 noundef %4) #11
  %6 = tail call i32 @memCompare(ptr noundef %0, ptr noundef %1, i32 noundef %4) #11
  %7 = icmp eq i32 %6, -1
  %..i = select i1 %7, ptr %0, ptr %1
  tail call void @Kit_TruthCopy_64bit(ptr noundef %2, ptr noundef %..i, i32 noundef %4) #11
  %8 = getelementptr inbounds nuw i8, ptr %3, i64 20
  %9 = load i32, ptr %8, align 4, !tbaa !21
  %10 = icmp sgt i32 %9, 0
  br i1 %10, label %.lr.ph, label %._crit_edge

.lr.ph:                                           ; preds = %5
  %11 = getelementptr inbounds nuw i8, ptr %3, i64 8
  %12 = zext nneg i32 %9 to i64
  br label %13

13:                                               ; preds = %.lr.ph, %minWord3.exit
  %indvars.iv = phi i64 [ %12, %.lr.ph ], [ %indvars.iv.next, %minWord3.exit ]
  %indvars.iv.next = add nsw i64 %indvars.iv, -1
  %14 = load ptr, ptr %11, align 8, !tbaa !25
  %15 = getelementptr inbounds nuw i32, ptr %14, i64 %indvars.iv.next
  %16 = load i32, ptr %15, align 4, !tbaa !15
  tail call void @Kit_TruthSwapAdjacentVars_64bit(ptr noundef %0, i32 noundef %4, i32 noundef %16) #11
  %17 = load ptr, ptr %11, align 8, !tbaa !25
  %18 = getelementptr inbounds nuw i32, ptr %17, i64 %indvars.iv.next
  %19 = load i32, ptr %18, align 4, !tbaa !15
  tail call void @Kit_TruthSwapAdjacentVars_64bit(ptr noundef %1, i32 noundef %4, i32 noundef %19) #11
  %20 = tail call i32 @memCompare(ptr noundef %0, ptr noundef %1, i32 noundef %4) #11
  %21 = icmp slt i32 %20, 1
  br i1 %21, label %22, label %26

22:                                               ; preds = %13
  %23 = tail call i32 @memCompare(ptr noundef %0, ptr noundef %2, i32 noundef %4) #11
  %24 = icmp slt i32 %23, 0
  br i1 %24, label %25, label %minWord3.exit

25:                                               ; preds = %22
  tail call void @Kit_TruthCopy_64bit(ptr noundef %2, ptr noundef %0, i32 noundef %4) #11
  br label %26

26:                                               ; preds = %25, %13
  %27 = tail call i32 @memCompare(ptr noundef %1, ptr noundef %2, i32 noundef %4) #11
  %28 = icmp slt i32 %27, 1
  br i1 %28, label %29, label %minWord3.exit

29:                                               ; preds = %26
  tail call void @Kit_TruthCopy_64bit(ptr noundef %2, ptr noundef %1, i32 noundef %4) #11
  br label %minWord3.exit

minWord3.exit:                                    ; preds = %22, %26, %29
  %30 = icmp samesign ugt i64 %indvars.iv, 1
  br i1 %30, label %13, label %._crit_edge, !llvm.loop !32

._crit_edge:                                      ; preds = %minWord3.exit, %5
  %31 = getelementptr inbounds nuw i8, ptr %3, i64 36
  %32 = load i32, ptr %31, align 4, !tbaa !27
  %33 = icmp sgt i32 %32, 0
  br i1 %33, label %.lr.ph69, label %._crit_edge70

.lr.ph69:                                         ; preds = %._crit_edge
  %34 = getelementptr inbounds nuw i8, ptr %3, i64 24
  %35 = getelementptr inbounds nuw i8, ptr %3, i64 8
  %36 = zext nneg i32 %32 to i64
  br label %38

.loopexit:                                        ; preds = %minWord3.exit62, %minWord3.exit61
  %37 = icmp sgt i64 %indvars.iv75, 1
  br i1 %37, label %38, label %._crit_edge70, !llvm.loop !33

38:                                               ; preds = %.lr.ph69, %.loopexit
  %indvars.iv75 = phi i64 [ %36, %.lr.ph69 ], [ %indvars.iv.next76, %.loopexit ]
  %indvars.iv.next76 = add nsw i64 %indvars.iv75, -1
  tail call void @Kit_TruthSwapAdjacentVars_64bit(ptr noundef %0, i32 noundef %4, i32 noundef 0) #11
  tail call void @Kit_TruthSwapAdjacentVars_64bit(ptr noundef %1, i32 noundef %4, i32 noundef 0) #11
  %39 = load ptr, ptr %34, align 8, !tbaa !28
  %40 = getelementptr inbounds nuw i32, ptr %39, i64 %indvars.iv.next76
  %41 = load i32, ptr %40, align 4, !tbaa !15
  tail call void @Kit_TruthChangePhase_64bit(ptr noundef %0, i32 noundef %4, i32 noundef %41) #11
  %42 = load ptr, ptr %34, align 8, !tbaa !28
  %43 = getelementptr inbounds nuw i32, ptr %42, i64 %indvars.iv.next76
  %44 = load i32, ptr %43, align 4, !tbaa !15
  tail call void @Kit_TruthChangePhase_64bit(ptr noundef %1, i32 noundef %4, i32 noundef %44) #11
  %45 = tail call i32 @memCompare(ptr noundef %0, ptr noundef %1, i32 noundef %4) #11
  %46 = icmp slt i32 %45, 1
  br i1 %46, label %47, label %51

47:                                               ; preds = %38
  %48 = tail call i32 @memCompare(ptr noundef %0, ptr noundef %2, i32 noundef %4) #11
  %49 = icmp slt i32 %48, 0
  br i1 %49, label %50, label %minWord3.exit61

50:                                               ; preds = %47
  tail call void @Kit_TruthCopy_64bit(ptr noundef %2, ptr noundef %0, i32 noundef %4) #11
  br label %51

51:                                               ; preds = %50, %38
  %52 = tail call i32 @memCompare(ptr noundef %1, ptr noundef %2, i32 noundef %4) #11
  %53 = icmp slt i32 %52, 1
  br i1 %53, label %54, label %minWord3.exit61

54:                                               ; preds = %51
  tail call void @Kit_TruthCopy_64bit(ptr noundef %2, ptr noundef %1, i32 noundef %4) #11
  br label %minWord3.exit61

minWord3.exit61:                                  ; preds = %47, %51, %54
  %55 = load i32, ptr %8, align 4, !tbaa !21
  %56 = icmp sgt i32 %55, 0
  br i1 %56, label %.lr.ph65.preheader, label %.loopexit

.lr.ph65.preheader:                               ; preds = %minWord3.exit61
  %57 = zext nneg i32 %55 to i64
  br label %.lr.ph65

.lr.ph65:                                         ; preds = %.lr.ph65.preheader, %minWord3.exit62
  %indvars.iv72 = phi i64 [ %57, %.lr.ph65.preheader ], [ %indvars.iv.next73, %minWord3.exit62 ]
  %indvars.iv.next73 = add nsw i64 %indvars.iv72, -1
  %58 = load ptr, ptr %35, align 8, !tbaa !25
  %59 = getelementptr inbounds nuw i32, ptr %58, i64 %indvars.iv.next73
  %60 = load i32, ptr %59, align 4, !tbaa !15
  tail call void @Kit_TruthSwapAdjacentVars_64bit(ptr noundef %0, i32 noundef %4, i32 noundef %60) #11
  %61 = load ptr, ptr %35, align 8, !tbaa !25
  %62 = getelementptr inbounds nuw i32, ptr %61, i64 %indvars.iv.next73
  %63 = load i32, ptr %62, align 4, !tbaa !15
  tail call void @Kit_TruthSwapAdjacentVars_64bit(ptr noundef %1, i32 noundef %4, i32 noundef %63) #11
  %64 = tail call i32 @memCompare(ptr noundef %0, ptr noundef %1, i32 noundef %4) #11
  %65 = icmp slt i32 %64, 1
  br i1 %65, label %66, label %70

66:                                               ; preds = %.lr.ph65
  %67 = tail call i32 @memCompare(ptr noundef %0, ptr noundef %2, i32 noundef %4) #11
  %68 = icmp slt i32 %67, 0
  br i1 %68, label %69, label %minWord3.exit62

69:                                               ; preds = %66
  tail call void @Kit_TruthCopy_64bit(ptr noundef %2, ptr noundef %0, i32 noundef %4) #11
  br label %70

70:                                               ; preds = %69, %.lr.ph65
  %71 = tail call i32 @memCompare(ptr noundef %1, ptr noundef %2, i32 noundef %4) #11
  %72 = icmp slt i32 %71, 1
  br i1 %72, label %73, label %minWord3.exit62

73:                                               ; preds = %70
  tail call void @Kit_TruthCopy_64bit(ptr noundef %2, ptr noundef %1, i32 noundef %4) #11
  br label %minWord3.exit62

minWord3.exit62:                                  ; preds = %66, %70, %73
  %74 = icmp samesign ugt i64 %indvars.iv72, 1
  br i1 %74, label %.lr.ph65, label %.loopexit, !llvm.loop !34

._crit_edge70:                                    ; preds = %.loopexit, %._crit_edge
  tail call void @Kit_TruthCopy_64bit(ptr noundef %0, ptr noundef %2, i32 noundef %4) #11
  ret void
}